Certificate:
    Data:
        Version: 3 (0x2)
        Serial Number: 21 (0x15)
    Signature Algorithm: sha256WithRSAEncryption
        Issuer: C=PL, L=Krakow, OU=Channel.5 Certs Unit, CN=Channel.5 CA, O=ch5.pl/emailAddress=certs@ch5.pl
        Validity
            Not Before: Aug 14 21:11:11 2018 GMT
            Not After : Aug 11 21:11:11 2028 GMT
        Subject: C=PL, ST=Malopolskie, O=ch5.pl, L=Nowy Sacz, CN=localtest.me/emailAddress=certs@ch5.pl
        Subject Public Key Info:
            Public Key Algorithm: rsaEncryption
                Public-Key: (4096 bit)
                Modulus:
                    00:be:9f:77:1b:d5:c8:1b:61:33:1e:4a:1c:eb:fc:
                    78:47:81:16:30:81:87:38:0b:95:91:d6:05:c4:e8:
                    c8:17:e1:75:f0:b9:da:2e:5d:80:2b:a5:bd:56:1e:
                    5f:13:b0:99:25:03:cc:b9:b7:ac:1a:2d:76:96:b3:
                    cf:2e:5e:7c:8c:84:1b:f8:e6:2c:fe:1b:f9:81:8a:
                    6d:dd:4b:17:99:13:76:d8:f7:60:b7:ad:03:f6:ea:
                    34:2d:72:b2:d7:de:1f:e7:de:3b:75:d1:0e:48:4f:
                    e4:fe:6b:29:dc:20:f3:0c:8a:97:2c:9c:82:51:b9:
                    1d:9c:45:6a:af:30:c0:6b:c2:1d:c1:eb:27:c5:4f:
                    b8:78:46:db:8b:2b:95:ba:23:6e:ea:3c:5f:13:1c:
                    79:0c:1f:d5:ab:27:ad:82:0f:58:2b:66:8e:7d:48:
                    62:0e:02:34:94:0e:c3:6b:d6:f0:19:15:e5:5c:be:
                    3a:0e:67:ae:0e:a2:99:44:50:27:bd:00:ab:c0:ca:
                    37:2f:70:76:42:21:ae:6d:65:af:ca:b1:e9:11:98:
                    01:36:af:7e:6e:80:72:fd:90:5f:81:65:65:9b:3c:
                    ee:0a:68:dc:1c:35:14:74:be:e6:5f:75:df:59:9d:
                    81:5b:7e:c3:1e:5b:fd:70:4e:9c:60:ad:c1:9e:a0:
                    bb:5d:9d:a2:9f:da:ef:35:74:f7:5a:a7:fb:21:e3:
                    4e:ce:c9:fd:ee:fd:36:3d:50:76:be:1b:8a:1d:6a:
                    67:39:21:63:32:cc:f9:bb:23:7f:e6:ba:fc:f7:74:
                    fe:32:09:54:71:49:1d:4d:6c:f1:5b:27:45:ea:6b:
                    36:bd:46:ab:32:04:61:40:e4:e2:b4:fd:cf:30:72:
                    11:0c:69:ec:ca:22:e3:06:76:40:2f:fa:bf:77:b1:
                    a4:a6:42:68:b2:56:8b:7b:4e:89:e4:1b:63:46:46:
                    29:f7:9e:fd:68:5d:ca:52:21:26:97:2b:89:53:a8:
                    0a:2a:8e:12:fc:f4:6f:76:f3:bf:29:bb:de:34:c3:
                    12:dc:9f:2b:c3:dc:db:b8:85:40:5b:4b:de:4c:f8:
                    36:f2:17:86:1d:1d:59:4f:1b:3c:3b:b0:6b:f5:3c:
                    ec:f6:7c:2e:36:1e:30:07:65:a8:8c:21:45:88:4e:
                    6e:ca:6e:8c:ab:66:e6:eb:d6:92:81:31:74:51:e1:
                    a1:5d:8f:73:5c:1b:39:9e:9b:be:ee:93:fe:6c:81:
                    26:ff:b8:20:cc:a4:00:7a:b4:00:02:bf:2c:0e:da:
                    49:29:d4:71:6f:17:4a:14:8a:30:b9:bc:43:29:71:
                    ba:9e:0e:df:13:72:15:36:ee:d4:db:7c:3a:a4:bc:
                    f9:80:b5
                Exponent: 65537 (0x10001)
        X509v3 extensions:
            X509v3 Basic Constraints: 
                CA:FALSE
            X509v3 Subject Key Identifier: 
                57:F2:66:EE:72:49:27:5A:8B:75:2B:05:BC:99:52:2F:C1:01:0A:C0
            X509v3 Authority Key Identifier: 
                keyid:CF:A8:6A:4E:F6:25:A4:C4:7D:D4:6C:48:5E:1D:A5:50:97:CF:13:D2
                DirName:/C=PL/L=Krakow/OU=Channel.5 Certs Unit/CN=Channel.5 CA/O=ch5.pl/emailAddress=certs@ch5.pl
                serial:88:67:26:7B:8B:A1:6F:BD

            X509v3 Extended Key Usage: 
                TLS Web Client Authentication
            X509v3 Key Usage: 
                Digital Signature
    Signature Algorithm: sha256WithRSAEncryption
         20:fa:f1:bf:23:f5:68:aa:ed:c0:1b:d6:f0:0f:4a:51:3b:f4:
         d5:00:0c:45:c7:11:8e:ce:bb:f5:3c:a4:5f:ed:84:4c:75:50:
         30:e5:0f:02:29:f0:91:f1:ff:8b:d7:73:9c:60:99:e9:18:3d:
         a1:8c:c9:8d:7c:38:c0:aa:f0:01:d0:f2:ba:ac:58:a2:8f:4a:
         08:b3:15:73:2f:8a:ba:29:74:82:30:09:31:f9:3c:8e:1f:ea:
         72:b2:20:6d:0f:03:19:f1:02:0b:e7:6d:75:9b:ba:9c:2f:c4:
         a7:aa:57:33:87:cf:c6:c7:cd:3f:0c:28:ba:ab:fc:7a:34:91:
         f3:e0:8d:f5:b5:c7:ed:7d:a6:1f:fd:db:dd:11:8c:77:56:58:
         49:5c:b0:59:e8:63:ce:65:1b:7c:83:18:4a:75:12:fb:98:cc:
         e7:69:5b:5a:6f:d4:d7:d2:68:27:dd:ce:6a:af:73:10:98:3d:
         fb:be:6e:f0:fa:21:44:88:c5:36:3d:c1:02:a4:b8:48:f6:6e:
         df:f8:4e:a7:6e:c0:7c:ce:b5:c2:fb:e3:c2:6b:f7:28:f2:c4:
         6a:09:d2:c1:bd:06:f7:f4:69:9d:b8:a1:cd:f4:b4:19:37:44:
         1d:15:3e:c7:97:5a:e0:5f:4f:36:71:71:c3:ae:e0:07:5f:8b:
         d3:9e:54:02
-----BEGIN CERTIFICATE-----
MIIFhjCCBG6gAwIBAgIBFTANBgkqhkiG9w0BAQsFADCBgjELMAkGA1UEBhMCUEwx
DzANBgNVBAcTBktyYWtvdzEdMBsGA1UECxMUQ2hhbm5lbC41IENlcnRzIFVuaXQx
FTATBgNVBAMTDENoYW5uZWwuNSBDQTEPMA0GA1UEChMGY2g1LnBsMRswGQYJKoZI
hvcNAQkBFgxjZXJ0c0BjaDUucGwwHhcNMTgwODE0MjExMTExWhcNMjgwODExMjEx
MTExWjB8MQswCQYDVQQGEwJQTDEUMBIGA1UECAwLTWFsb3BvbHNraWUxDzANBgNV
BAoMBmNoNS5wbDESMBAGA1UEBwwJTm93eSBTYWN6MRUwEwYDVQQDDAxsb2NhbHRl
c3QubWUxGzAZBgkqhkiG9w0BCQEWDGNlcnRzQGNoNS5wbDCCAiIwDQYJKoZIhvcN
AQEBBQADggIPADCCAgoCggIBAL6fdxvVyBthMx5KHOv8eEeBFjCBhzgLlZHWBcTo
yBfhdfC52i5dgCulvVYeXxOwmSUDzLm3rBotdpazzy5efIyEG/jmLP4b+YGKbd1L
F5kTdtj3YLetA/bqNC1ystfeH+feO3XRDkhP5P5rKdwg8wyKlyycglG5HZxFaq8w
wGvCHcHrJ8VPuHhG24srlbojbuo8XxMceQwf1asnrYIPWCtmjn1IYg4CNJQOw2vW
8BkV5Vy+Og5nrg6imURQJ70Aq8DKNy9wdkIhrm1lr8qx6RGYATavfm6Acv2QX4Fl
ZZs87gpo3Bw1FHS+5l9131mdgVt+wx5b/XBOnGCtwZ6gu12dop/a7zV091qn+yHj
Ts7J/e79Nj1Qdr4bih1qZzkhYzLM+bsjf+a6/Pd0/jIJVHFJHU1s8VsnReprNr1G
qzIEYUDk4rT9zzByEQxp7Moi4wZ2QC/6v3expKZCaLJWi3tOieQbY0ZGKfee/Whd
ylIhJpcriVOoCiqOEvz0b3bzvym73jTDEtyfK8Pc27iFQFtL3kz4NvIXhh0dWU8b
PDuwa/U87PZ8LjYeMAdlqIwhRYhObspujKtm5uvWkoExdFHhoV2Pc1wbOZ6bvu6T
/myBJv+4IMykAHq0AAK/LA7aSSnUcW8XShSKMLm8Qylxup4O3xNyFTbu1Nt8OqS8
+YC1AgMBAAGjggEKMIIBBjAJBgNVHRMEAjAAMB0GA1UdDgQWBBRX8mbuckknWot1
KwW8mVIvwQEKwDCBtwYDVR0jBIGvMIGsgBTPqGpO9iWkxH3UbEheHaVQl88T0qGB
iKSBhTCBgjELMAkGA1UEBhMCUEwxDzANBgNVBAcTBktyYWtvdzEdMBsGA1UECxMU
Q2hhbm5lbC41IENlcnRzIFVuaXQxFTATBgNVBAMTDENoYW5uZWwuNSBDQTEPMA0G
A1UEChMGY2g1LnBsMRswGQYJKoZIhvcNAQkBFgxjZXJ0c0BjaDUucGyCCQCIZyZ7
i6FvvTATBgNVHSUEDDAKBggrBgEFBQcDAjALBgNVHQ8EBAMCB4AwDQYJKoZIhvcN
AQELBQADggEBACD68b8j9Wiq7cAb1vAPSlE79NUADEXHEY7Ou/U8pF/thEx1UDDl
DwIp8JHx/4vXc5xgmekYPaGMyY18OMCq8AHQ8rqsWKKPSgizFXMviropdIIwCTH5
PI4f6nKyIG0PAxnxAgvnbXWbupwvxKeqVzOHz8bHzT8MKLqr/Ho0kfPgjfW1x+19
ph/9290RjHdWWElcsFnoY85lG3yDGEp1EvuYzOdpW1pv1NfSaCfdzmqvcxCYPfu+
bvD6IUSIxTY9wQKkuEj2bt/4TqduwHzOtcL748Jr9yjyxGoJ0sG9Bvf0aZ24oc30
tBk3RB0VPseXWuBfTzZxccOu4Adfi9OeVAI=
-----END CERTIFICATE-----
